; Function Attrs: mustprogress uwtable
define hidden void @_ZN2cv4face18FacemarkKazemiImpl9writeLeafERSt14basic_ofstreamIcSt11char_traitsIcEERKSt6vectorINS_6Point_IfEESaIS9_EE(ptr noundef nonnull readnone align 8 captures(none) dereferenceable(216) %0, ptr noundef nonnull align 8 dereferenceable(248) %1, ptr noundef nonnull readonly align 8 captures(none) dereferenceable(24) %2) local_unnamed_addr #3 align 2 {
  %4 = alloca i64, align 8
  call void @llvm.lifetime.start.p0(i64 8, ptr nonnull %4) #24
  %5 = getelementptr inbounds nuw i8, ptr %2, i64 8
  %6 = load ptr, ptr %5, align 8, !tbaa !70
  %7 = load ptr, ptr %2, align 8, !tbaa !73
  %8 = ptrtoint ptr %6 to i64
  %9 = ptrtoint ptr %7 to i64
  %10 = sub i64 %8, %9
  %11 = ashr exact i64 %10, 3
  store i64 %11, ptr %4, align 8, !tbaa !69
  %12 = call noundef nonnull align 8 dereferenceable(8) ptr @_ZNSo5writeEPKcl(ptr noundef nonnull align 8 dereferenceable(8) %1, ptr noundef nonnull %4, i64 noundef 8)
  %13 = load ptr, ptr %2, align 8, !tbaa !73
  %14 = load ptr, ptr %5, align 8, !tbaa !70
  %15 = ptrtoint ptr %14 to i64
  %16 = ptrtoint ptr %13 to i64
  %17 = sub i64 %15, %16
  %18 = call noundef nonnull align 8 dereferenceable(8) ptr @_ZNSo5writeEPKcl(ptr noundef nonnull align 8 dereferenceable(8) %1, ptr noundef nonnull %13, i64 noundef %17)
  call void @llvm.lifetime.end.p0(i64 8, ptr nonnull %4) #24
  ret void
}